; Function Attrs: nounwind uwtable
define hidden range(i32 -1, 1) i32 @_PyThread_at_fork_reinit(ptr noundef writeonly captures(none) %0) local_unnamed_addr #0 {
  %2 = tail call ptr @PyThread_allocate_lock()
  %3 = icmp eq ptr %2, null
  br i1 %3, label %5, label %4

4:                                                ; preds = %1
  store ptr %2, ptr %0, align 8, !tbaa !185
  br label %5

5:                                                ; preds = %1, %4
  %.0 = phi i32 [ 0, %4 ], [ -1, %1 ]
  ret i32 %.0
}